; Function Attrs: mustprogress uwtable
define hidden void @_ZN5zxing6qrcode9DataBlockC2EiNS_8ArrayRefIcEE(ptr nocapture noundef nonnull align 8 dereferenceable(40) %0, i32 noundef %1, ptr nocapture noundef readonly %2) unnamed_addr #0 align 2 personality ptr @__gxx_personality_v0 {
  %4 = getelementptr inbounds i8, ptr %0, i64 8
  store i32 0, ptr %4, align 8
  store ptr getelementptr inbounds inrange(-16, 16) (i8, ptr @_ZTVN5zxing6qrcode9DataBlockE, i64 16), ptr %0, align 8
  %5 = getelementptr inbounds i8, ptr %0, i64 12
  store i32 %1, ptr %5, align 4
  %6 = getelementptr inbounds i8, ptr %0, i64 16
  %7 = getelementptr inbounds i8, ptr %0, i64 24
  store i32 0, ptr %7, align 8
  store ptr getelementptr inbounds inrange(-16, 16) (i8, ptr @_ZTVN5zxing8ArrayRefIcEE, i64 16), ptr %6, align 8
  %8 = getelementptr inbounds i8, ptr %0, i64 32
  store ptr null, ptr %8, align 8
  %9 = getelementptr inbounds i8, ptr %2, i64 16
  %10 = load ptr, ptr %9, align 8
  %.not.i.i = icmp eq ptr %10, null
  br i1 %.not.i.i, label %24, label %11

11:                                               ; preds = %3
  %12 = getelementptr inbounds i8, ptr %10, i64 8
  %13 = load i32, ptr %12, align 8
  %14 = add i32 %13, 1
  store i32 %14, ptr %12, align 8
  %.pr.i = load ptr, ptr %8, align 8
  %.not5.i.i = icmp eq ptr %.pr.i, null
  br i1 %.not5.i.i, label %24, label %15

15:                                               ; preds = %11
  %16 = getelementptr inbounds i8, ptr %.pr.i, i64 8
  %17 = load i32, ptr %16, align 8
  %18 = add i32 %17, -1
  store i32 %18, ptr %16, align 8
  %19 = icmp eq i32 %18, 0
  br i1 %19, label %20, label %24

20:                                               ; preds = %15
  store i32 -559026175, ptr %16, align 8
  %21 = load ptr, ptr %.pr.i, align 8
  %22 = getelementptr inbounds i8, ptr %21, i64 8
  %23 = load ptr, ptr %22, align 8
  tail call void %23(ptr noundef nonnull align 8 dereferenceable(12) %.pr.i) #13
  br label %24

24:                                               ; preds = %20, %15, %11, %3
  store ptr %10, ptr %8, align 8
  ret void
}